target datalayout = "e-m:e-p270:32:32-p271:32:32-p272:64:64-i64:64-i128:128-f80:128-n8:16:32:64-S128"
target triple = "x86_64-unknown-linux-gnu"

%"struct.node::AssertionInfo" = type { ptr, ptr, ptr }
%"class.node::MemoryRetainer" = type { ptr }
%"class.node::ReqWrap" = type { %"class.node::AsyncWrap", %"class.node::ReqWrapBase", ptr, %struct.uv_fs_s }
%"class.node::AsyncWrap" = type { %"class.node::BaseObject", i32, i8, double, double }
%"class.node::BaseObject" = type { %"class.node::MemoryRetainer", %"class.v8::Global", ptr, ptr }
%"class.v8::Global" = type { %"class.v8::PersistentBase" }
%"class.v8::PersistentBase" = type { %"class.v8::IndirectHandleBase" }
%"class.v8::IndirectHandleBase" = type { ptr }
%"class.node::ReqWrapBase" = type { ptr, %"class.node::ListNode" }
%"class.node::ListNode" = type { ptr, ptr }
%struct.uv_fs_s = type { ptr, i32, [6 x ptr], i32, ptr, ptr, i64, ptr, ptr, %struct.uv_stat_t, ptr, i32, i32, i32, i32, ptr, i64, i32, i32, double, double, %struct.uv__work, [4 x %struct.uv_buf_t] }
%struct.uv_stat_t = type { i64, i64, i64, i64, i64, i64, i64, i64, i64, i64, i64, i64, %struct.uv_timespec_t, %struct.uv_timespec_t, %struct.uv_timespec_t, %struct.uv_timespec_t }
%struct.uv_timespec_t = type { i64, i64 }
%struct.uv__work = type { ptr, ptr, ptr, %struct.uv__queue }
%struct.uv__queue = type { ptr, ptr }
%struct.uv_buf_t = type { ptr, i64 }
%"class.v8::Local.297" = type { %"class.v8::LocalBase.298" }
%"class.v8::LocalBase.298" = type { %"class.v8::IndirectHandleBase" }
%"class.v8::HandleScope" = type { ptr, ptr, ptr }
%"class.v8::Context::Scope" = type { %"class.v8::Local.297" }
%"class.node::fs::FSReqAfterScope" = type { %"class.node::BaseObjectPtrImpl.362", ptr, %"class.v8::HandleScope", %"class.v8::Context::Scope" }
%"class.node::BaseObjectPtrImpl.362" = type { %union.anon.363 }
%union.anon.363 = type { ptr }
%"struct.node::BaseObject::PointerData" = type { i32, i32, i8, i8, ptr }

@_ZZN4node10BaseObject6DetachEvE4args = linkonce_odr dso_local constant %"struct.node::AssertionInfo" { ptr @.str.172, ptr @.str.173, ptr @.str.174 }, comdat, align 8
@_ZZN4node17BaseObjectPtrImplINS_2fs9FSReqBaseELb0EEC1EPS2_E4args_0 = linkonce_odr dso_local constant %"struct.node::AssertionInfo" { ptr @.str.118, ptr @.str.119, ptr @.str.532 }, comdat, align 8

; Function Attrs: mustprogress nounwind uwtable
define linkonce_odr dso_local void @_ZN4node17BaseObjectPtrImplINS_2fs9FSReqBaseELb0EEC2EOS3_(ptr noundef nonnull align 8 dereferenceable(8) %this, ptr noundef nonnull align 8 dereferenceable(8) %other) unnamed_addr #4 comdat align 2 {
entry:
  %this.addr = alloca ptr, align 8
  %other.addr = alloca ptr, align 8
  store ptr %this, ptr %this.addr, align 8
  store ptr %other, ptr %other.addr, align 8
  %this1 = load ptr, ptr %this.addr, align 8
  %data_ = getelementptr inbounds %"class.node::BaseObjectPtrImpl.362", ptr %this1, i32 0, i32 0
  %0 = load ptr, ptr %other.addr, align 8
  %data_2 = getelementptr inbounds %"class.node::BaseObjectPtrImpl.362", ptr %0, i32 0, i32 0
  call void @llvm.memcpy.p0.p0.i64(ptr align 8 %data_, ptr align 8 %data_2, i64 8, i1 false)
  %1 = load ptr, ptr %other.addr, align 8
  %data_3 = getelementptr inbounds %"class.node::BaseObjectPtrImpl.362", ptr %1, i32 0, i32 0
  store ptr null, ptr %data_3, align 8
  ret void
}

; Function Attrs: mustprogress nounwind uwtable
define linkonce_odr dso_local noundef ptr @_ZNK4node17BaseObjectPtrImplINS_2fs9FSReqBaseELb0EE12pointer_dataEv(ptr noundef nonnull align 8 dereferenceable(8) %this) #4 comdat align 2 {
entry:
  %retval = alloca ptr, align 8
  %this.addr = alloca ptr, align 8
  store ptr %this, ptr %this.addr, align 8
  %this1 = load ptr, ptr %this.addr, align 8
  %call = call noundef ptr @_ZNK4node17BaseObjectPtrImplINS_2fs9FSReqBaseELb0EE15get_base_objectEv(ptr noundef nonnull align 8 dereferenceable(8) %this1)
  %cmp = icmp eq ptr %call, null
  br i1 %cmp, label %if.then, label %if.end

if.then:                                          ; preds = %entry
  store ptr null, ptr %retval, align 8
  br label %return

if.end:                                           ; preds = %entry
  %call2 = call noundef ptr @_ZNK4node17BaseObjectPtrImplINS_2fs9FSReqBaseELb0EE15get_base_objectEv(ptr noundef nonnull align 8 dereferenceable(8) %this1)
  %call3 = call noundef ptr @_ZN4node10BaseObject12pointer_dataEv(ptr noundef nonnull align 8 dereferenceable(32) %call2)
  store ptr %call3, ptr %retval, align 8
  br label %return

return:                                           ; preds = %if.end, %if.then
  %0 = load ptr, ptr %retval, align 8
  ret ptr %0
}

; Function Attrs: mustprogress nounwind uwtable
define linkonce_odr dso_local void @_ZN4node17BaseObjectPtrImplINS_2fs9FSReqBaseELb0EEC2Ev(ptr noundef nonnull align 8 dereferenceable(8) %this) unnamed_addr #4 comdat align 2 {
entry:
  %this.addr = alloca ptr, align 8
  store ptr %this, ptr %this.addr, align 8
  %this1 = load ptr, ptr %this.addr, align 8
  %data_2 = getelementptr inbounds %"class.node::BaseObjectPtrImpl.362", ptr %this1, i32 0, i32 0
  store ptr null, ptr %data_2, align 8
  ret void
}

; Function Attrs: mustprogress nounwind uwtable
define linkonce_odr dso_local noundef ptr @_ZNK4node17BaseObjectPtrImplINS_2fs9FSReqBaseELb0EE15get_base_objectEv(ptr noundef nonnull align 8 dereferenceable(8) %this) #4 comdat align 2 {
entry:
  %this.addr = alloca ptr, align 8
  store ptr %this, ptr %this.addr, align 8
  %this1 = load ptr, ptr %this.addr, align 8
  %data_ = getelementptr inbounds %"class.node::BaseObjectPtrImpl.362", ptr %this1, i32 0, i32 0
  %0 = load ptr, ptr %data_, align 8
  ret ptr %0
}

; Function Attrs: mustprogress nounwind uwtable
define linkonce_odr dso_local void @_ZN4node17BaseObjectPtrImplINS_2fs9FSReqBaseELb0EED2Ev(ptr noundef nonnull align 8 dereferenceable(8) %this) unnamed_addr #4 comdat align 2 {
entry:
  %this.addr = alloca ptr, align 8
  store ptr %this, ptr %this.addr, align 8
  %this1 = load ptr, ptr %this.addr, align 8
  %call = call noundef ptr @_ZNK4node17BaseObjectPtrImplINS_2fs9FSReqBaseELb0EE3getEv(ptr noundef nonnull align 8 dereferenceable(8) %this1)
  %cmp = icmp ne ptr %call, null
  br i1 %cmp, label %if.then, label %if.end

if.then:                                          ; preds = %entry
  %call2 = call noundef ptr @_ZNK4node17BaseObjectPtrImplINS_2fs9FSReqBaseELb0EE3getEv(ptr noundef nonnull align 8 dereferenceable(8) %this1)
  call void @_ZN4node10BaseObject17decrease_refcountEv(ptr noundef nonnull align 8 dereferenceable(32) %call2)
  br label %if.end

if.end:                                           ; preds = %if.then, %entry
  ret void
}

; Function Attrs: mustprogress nounwind uwtable
define linkonce_odr dso_local noundef nonnull align 8 dereferenceable(8) ptr @_ZN4node17BaseObjectPtrImplINS_2fs9FSReqBaseELb0EEaSEOS3_(ptr noundef nonnull align 8 dereferenceable(8) %this, ptr noundef nonnull align 8 dereferenceable(8) %other) #4 comdat align 2 {
entry:
  %retval = alloca ptr, align 8
  %this.addr = alloca ptr, align 8
  %other.addr = alloca ptr, align 8
  store ptr %this, ptr %this.addr, align 8
  store ptr %other, ptr %other.addr, align 8
  %this1 = load ptr, ptr %this.addr, align 8
  %0 = load ptr, ptr %other.addr, align 8
  %cmp = icmp eq ptr %0, %this1
  br i1 %cmp, label %if.then, label %if.end

if.then:                                          ; preds = %entry
  store ptr %this1, ptr %retval, align 8
  br label %return

if.end:                                           ; preds = %entry
  call void @_ZN4node17BaseObjectPtrImplINS_2fs9FSReqBaseELb0EED2Ev(ptr noundef nonnull align 8 dereferenceable(8) %this1) #3
  %1 = load ptr, ptr %other.addr, align 8
  call void @_ZN4node17BaseObjectPtrImplINS_2fs9FSReqBaseELb0EEC2EOS3_(ptr noundef nonnull align 8 dereferenceable(8) %this1, ptr noundef nonnull align 8 dereferenceable(8) %1)
  store ptr %this1, ptr %retval, align 8
  br label %return

return:                                           ; preds = %if.end, %if.then
  %2 = load ptr, ptr %retval, align 8
  ret ptr %2
}

; Function Attrs: mustprogress nounwind uwtable
define linkonce_odr dso_local void @_ZN4node17BaseObjectPtrImplINS_2fs9FSReqBaseELb0EEC2EPS2_(ptr noundef nonnull align 8 dereferenceable(8) %this, ptr noundef %target) unnamed_addr #4 comdat align 2 {
entry:
  %this.addr = alloca ptr, align 8
  %target.addr = alloca ptr, align 8
  store ptr %this, ptr %this.addr, align 8
  store ptr %target, ptr %target.addr, align 8
  %this1 = load ptr, ptr %this.addr, align 8
  call void @_ZN4node17BaseObjectPtrImplINS_2fs9FSReqBaseELb0EEC2Ev(ptr noundef nonnull align 8 dereferenceable(8) %this1)
  %0 = load ptr, ptr %target.addr, align 8
  %cmp = icmp eq ptr %0, null
  br i1 %cmp, label %if.then, label %if.end

if.then:                                          ; preds = %entry
  br label %return

if.end:                                           ; preds = %entry
  %1 = load ptr, ptr %target.addr, align 8
  %data_ = getelementptr inbounds %"class.node::BaseObjectPtrImpl.362", ptr %this1, i32 0, i32 0
  store ptr %1, ptr %data_, align 8
  br label %do.body

do.body:                                          ; preds = %if.end
  %call = call noundef ptr @_ZNK4node17BaseObjectPtrImplINS_2fs9FSReqBaseELb0EE12pointer_dataEv(ptr noundef nonnull align 8 dereferenceable(8) %this1)
  %cmp2 = icmp ne ptr %call, null
  %lnot = xor i1 %cmp2, true
  %lnot3 = xor i1 %lnot, true
  %lnot4 = xor i1 %lnot3, true
  br i1 %lnot4, label %if.then5, label %if.end7

if.then5:                                         ; preds = %do.body
  br label %do.body6

do.body6:                                         ; preds = %if.then5
  call void @_ZN4node6AssertERKNS_13AssertionInfoE(ptr noundef nonnull align 8 dereferenceable(24) @_ZZN4node17BaseObjectPtrImplINS_2fs9FSReqBaseELb0EEC1EPS2_E4args_0)
  call void @abort() #19
  unreachable

do.end:                                           ; No predecessors!
  br label %if.end7

if.end7:                                          ; preds = %do.end, %do.body
  br label %do.end8

do.end8:                                          ; preds = %if.end7
  %call9 = call noundef ptr @_ZNK4node17BaseObjectPtrImplINS_2fs9FSReqBaseELb0EE3getEv(ptr noundef nonnull align 8 dereferenceable(8) %this1)
  call void @_ZN4node10BaseObject17increase_refcountEv(ptr noundef nonnull align 8 dereferenceable(32) %call9)
  br label %return

return:                                           ; preds = %do.end8, %if.then
  ret void
}

; Function Attrs: mustprogress nounwind uwtable
define linkonce_odr dso_local noundef ptr @_ZNK4node17BaseObjectPtrImplINS_2fs9FSReqBaseELb0EE3getEv(ptr noundef nonnull align 8 dereferenceable(8) %this) #4 comdat align 2 {
entry:
  %this.addr = alloca ptr, align 8
  store ptr %this, ptr %this.addr, align 8
  %this1 = load ptr, ptr %this.addr, align 8
  %call = call noundef ptr @_ZNK4node17BaseObjectPtrImplINS_2fs9FSReqBaseELb0EE15get_base_objectEv(ptr noundef nonnull align 8 dereferenceable(8) %this1)
  ret ptr %call
}

; Function Attrs: mustprogress nounwind uwtable
define linkonce_odr dso_local void @_ZN4node17BaseObjectPtrImplINS_2fs9FSReqBaseELb0EE5resetEPS2_(ptr noundef nonnull align 8 dereferenceable(8) %this, ptr noundef %ptr) #4 comdat align 2 {
entry:
  %this.addr = alloca ptr, align 8
  %ptr.addr = alloca ptr, align 8
  %ref.tmp = alloca %"class.node::BaseObjectPtrImpl.362", align 8
  store ptr %this, ptr %this.addr, align 8
  store ptr %ptr, ptr %ptr.addr, align 8
  %this1 = load ptr, ptr %this.addr, align 8
  %0 = load ptr, ptr %ptr.addr, align 8
  call void @_ZN4node17BaseObjectPtrImplINS_2fs9FSReqBaseELb0EEC2EPS2_(ptr noundef nonnull align 8 dereferenceable(8) %ref.tmp, ptr noundef %0)
  %call = call noundef nonnull align 8 dereferenceable(8) ptr @_ZN4node17BaseObjectPtrImplINS_2fs9FSReqBaseELb0EEaSEOS3_(ptr noundef nonnull align 8 dereferenceable(8) %this1, ptr noundef nonnull align 8 dereferenceable(8) %ref.tmp)
  call void @_ZN4node17BaseObjectPtrImplINS_2fs9FSReqBaseELb0EED2Ev(ptr noundef nonnull align 8 dereferenceable(8) %ref.tmp) #3
  ret void
}

; Function Attrs: mustprogress nounwind uwtable
define linkonce_odr dso_local void @_ZN4node10BaseObject6DetachEv(ptr noundef nonnull align 8 dereferenceable(32) %this) #4 comdat align 2 {
entry:
  %this.addr = alloca ptr, align 8
  store ptr %this, ptr %this.addr, align 8
  %this1 = load ptr, ptr %this.addr, align 8
  br label %do.body

do.body:                                          ; preds = %entry
  %call = call noundef ptr @_ZN4node10BaseObject12pointer_dataEv(ptr noundef nonnull align 8 dereferenceable(32) %this1)
  %strong_ptr_count = getelementptr inbounds %"struct.node::BaseObject::PointerData", ptr %call, i32 0, i32 0
  %0 = load i32, ptr %strong_ptr_count, align 8
  %cmp = icmp ugt i32 %0, 0
  %lnot = xor i1 %cmp, true
  %lnot2 = xor i1 %lnot, true
  %lnot3 = xor i1 %lnot2, true
  br i1 %lnot3, label %if.then, label %if.end

if.then:                                          ; preds = %do.body
  br label %do.body4

do.body4:                                         ; preds = %if.then
  call void @_ZN4node6AssertERKNS_13AssertionInfoE(ptr noundef nonnull align 8 dereferenceable(24) @_ZZN4node10BaseObject6DetachEvE4args)
  call void @abort() #19
  unreachable

do.end:                                           ; No predecessors!
  br label %if.end

if.end:                                           ; preds = %do.end, %do.body
  br label %do.end5

do.end5:                                          ; preds = %if.end
  %call6 = call noundef ptr @_ZN4node10BaseObject12pointer_dataEv(ptr noundef nonnull align 8 dereferenceable(32) %this1)
  %is_detached = getelementptr inbounds %"struct.node::BaseObject::PointerData", ptr %call6, i32 0, i32 3
  store i8 1, ptr %is_detached, align 1
  ret void
}

; Function Attrs: mustprogress nounwind uwtable
define linkonce_odr dso_local noundef ptr @_ZN4node7ReqWrapI7uv_fs_sE3reqEv(ptr noundef nonnull align 8 dereferenceable(528) %this) #4 comdat align 2 {
entry:
  %this.addr = alloca ptr, align 8
  store ptr %this, ptr %this.addr, align 8
  %this1 = load ptr, ptr %this.addr, align 8
  %req_ = getelementptr inbounds %"class.node::ReqWrap", ptr %this1, i32 0, i32 3
  ret ptr %req_
}

; Function Attrs: mustprogress nounwind uwtable
define linkonce_odr dso_local noundef ptr @_ZNK4node17BaseObjectPtrImplINS_2fs9FSReqBaseELb0EEptEv(ptr noundef nonnull align 8 dereferenceable(8) %this) #4 comdat align 2 {
entry:
  %this.addr = alloca ptr, align 8
  store ptr %this, ptr %this.addr, align 8
  %this1 = load ptr, ptr %this.addr, align 8
  %call = call noundef ptr @_ZNK4node17BaseObjectPtrImplINS_2fs9FSReqBaseELb0EE3getEv(ptr noundef nonnull align 8 dereferenceable(8) %this1)
  ret ptr %call
}

; Function Attrs: mustprogress nounwind uwtable
define linkonce_odr dso_local noundef zeroext i1 @_ZNK4node17BaseObjectPtrImplINS_2fs9FSReqBaseELb0EEcvbEv(ptr noundef nonnull align 8 dereferenceable(8) %this) #4 comdat align 2 {
entry:
  %this.addr = alloca ptr, align 8
  store ptr %this, ptr %this.addr, align 8
  %this1 = load ptr, ptr %this.addr, align 8
  %call = call noundef ptr @_ZNK4node17BaseObjectPtrImplINS_2fs9FSReqBaseELb0EE3getEv(ptr noundef nonnull align 8 dereferenceable(8) %this1)
  %cmp = icmp ne ptr %call, null
  ret i1 %cmp
}

; Function Attrs: mustprogress nounwind uwtable
define dso_local void @_ZN4node2fs15FSReqAfterScope5ClearEv(ptr noundef nonnull align 8 dereferenceable(48) %this) #4 align 2 {
entry:
  %this.addr = alloca ptr, align 8
  store ptr %this, ptr %this.addr, align 8
  %this1 = load ptr, ptr %this.addr, align 8
  %wrap_ = getelementptr inbounds %"class.node::fs::FSReqAfterScope", ptr %this1, i32 0, i32 0
  %call = call noundef zeroext i1 @_ZNK4node17BaseObjectPtrImplINS_2fs9FSReqBaseELb0EEcvbEv(ptr noundef nonnull align 8 dereferenceable(8) %wrap_)
  br i1 %call, label %if.end, label %if.then

if.then:                                          ; preds = %entry
  br label %return

if.end:                                           ; preds = %entry
  %wrap_2 = getelementptr inbounds %"class.node::fs::FSReqAfterScope", ptr %this1, i32 0, i32 0
  %call3 = call noundef ptr @_ZNK4node17BaseObjectPtrImplINS_2fs9FSReqBaseELb0EEptEv(ptr noundef nonnull align 8 dereferenceable(8) %wrap_2)
  %call4 = call noundef ptr @_ZN4node7ReqWrapI7uv_fs_sE3reqEv(ptr noundef nonnull align 8 dereferenceable(528) %call3)
  call void @uv_fs_req_cleanup(ptr noundef %call4)
  %wrap_5 = getelementptr inbounds %"class.node::fs::FSReqAfterScope", ptr %this1, i32 0, i32 0
  %call6 = call noundef ptr @_ZNK4node17BaseObjectPtrImplINS_2fs9FSReqBaseELb0EEptEv(ptr noundef nonnull align 8 dereferenceable(8) %wrap_5)
  call void @_ZN4node10BaseObject6DetachEv(ptr noundef nonnull align 8 dereferenceable(32) %call6)
  %wrap_7 = getelementptr inbounds %"class.node::fs::FSReqAfterScope", ptr %this1, i32 0, i32 0
  call void @_ZN4node17BaseObjectPtrImplINS_2fs9FSReqBaseELb0EE5resetEPS2_(ptr noundef nonnull align 8 dereferenceable(8) %wrap_7, ptr noundef null)
  br label %return

return:                                           ; preds = %if.end, %if.then
  ret void
}