; Function Attrs: mustprogress nounwind uwtable
define dso_local void @_ZN4node2fs15FSReqAfterScope5ClearEv(ptr nocapture noundef nonnull align 8 dereferenceable(48) %this) local_unnamed_addr #3 align 2 {
entry:
  %0 = load ptr, ptr %this, align 8
  %cmp.i.not = icmp eq ptr %0, null
  br i1 %cmp.i.not, label %return, label %if.end

if.end:                                           ; preds = %entry
  %req_.i = getelementptr inbounds i8, ptr %0, i64 88
  tail call void @uv_fs_req_cleanup(ptr noundef nonnull %req_.i) #30
  %1 = load ptr, ptr %this, align 8
  %call.i = tail call noundef ptr @_ZN4node10BaseObject12pointer_dataEv(ptr noundef nonnull align 8 dereferenceable(32) %1) #30
  %2 = load i32, ptr %call.i, align 8
  %cmp.not.i = icmp eq i32 %2, 0
  br i1 %cmp.not.i, label %do.body4.i, label %_ZN4node10BaseObject6DetachEv.exit

do.body4.i:                                       ; preds = %if.end
  tail call void @_ZN4node6AssertERKNS_13AssertionInfoE(ptr noundef nonnull align 8 dereferenceable(24) @_ZZN4node10BaseObject6DetachEvE4args) #30
  tail call void @abort() #32
  unreachable

_ZN4node10BaseObject6DetachEv.exit:               ; preds = %if.end
  %call6.i = tail call noundef ptr @_ZN4node10BaseObject12pointer_dataEv(ptr noundef nonnull align 8 dereferenceable(32) %1) #30
  %is_detached.i = getelementptr inbounds i8, ptr %call6.i, i64 9
  store i8 1, ptr %is_detached.i, align 1
  %3 = load ptr, ptr %this, align 8
  %cmp.not.i.i.i = icmp eq ptr %3, null
  br i1 %cmp.not.i.i.i, label %_ZN4node17BaseObjectPtrImplINS_2fs9FSReqBaseELb0EE5resetEPS2_.exit, label %if.then.i.i.i

if.then.i.i.i:                                    ; preds = %_ZN4node10BaseObject6DetachEv.exit
  tail call void @_ZN4node10BaseObject17decrease_refcountEv(ptr noundef nonnull align 8 dereferenceable(32) %3) #30
  br label %_ZN4node17BaseObjectPtrImplINS_2fs9FSReqBaseELb0EE5resetEPS2_.exit

_ZN4node17BaseObjectPtrImplINS_2fs9FSReqBaseELb0EE5resetEPS2_.exit: ; preds = %_ZN4node10BaseObject6DetachEv.exit, %if.then.i.i.i
  store i64 0, ptr %this, align 8
  br label %return

return:                                           ; preds = %entry, %_ZN4node17BaseObjectPtrImplINS_2fs9FSReqBaseELb0EE5resetEPS2_.exit
  ret void
}